target datalayout = "e-m:e-p270:32:32-p271:32:32-p272:64:64-i64:64-i128:128-f80:128-n8:16:32:64-S128"
target triple = "x86_64-pc-linux-gnu"

%"class.folly::symbolizer::ElfFile" = type { [512 x i8], i32, ptr, i64, %"struct.folly::symbolizer::ElfFileId", i64 }
%"struct.folly::symbolizer::ElfFileId" = type { i64, i64, i64, i64 }
%"struct.std::pair.13" = type { i32, ptr }

@.str.49 = private unnamed_addr constant [14 x i8] c"file not open\00", align 1
@.str.50 = private unnamed_addr constant [30 x i8] c"posix_fadvise failed for file\00", align 1
@.str.51 = private unnamed_addr constant [1 x i8] zeroinitializer, align 1

; Function Attrs: noinline noreturn nounwind uwtable
define linkonce_odr hidden void @__clang_call_terminate(ptr noundef %0) #15 comdat {
  %2 = call ptr @__cxa_begin_catch(ptr %0) #24
  call void @_ZSt9terminatev() #26
  unreachable
}

; Function Attrs: mustprogress nounwind uwtable
define linkonce_odr void @_ZNSt4pairIKiPKcEC2IRiRA1_S1_TnNSt9enable_ifIXaaclsr5_PCCPE22_MoveConstructiblePairIT_T0_EEclsr5_PCCPE30_ImplicitlyMoveConvertiblePairIS9_SA_EEEbE4typeELb1EEEOS9_OSA_(ptr noundef nonnull align 8 dereferenceable(16) %0, ptr noundef nonnull align 4 dereferenceable(4) %1, ptr noundef nonnull align 1 dereferenceable(1) %2) unnamed_addr #0 comdat align 2 {
  %4 = alloca ptr, align 8
  %5 = alloca ptr, align 8
  %6 = alloca ptr, align 8
  store ptr %0, ptr %4, align 8, !tbaa !230
  store ptr %1, ptr %5, align 8, !tbaa !166
  store ptr %2, ptr %6, align 8, !tbaa !22
  %7 = load ptr, ptr %4, align 8
  %8 = getelementptr inbounds nuw %"struct.std::pair.13", ptr %7, i32 0, i32 0
  %9 = load ptr, ptr %5, align 8, !tbaa !166
  %10 = load i32, ptr %9, align 4, !tbaa !32
  store i32 %10, ptr %8, align 8, !tbaa !232
  %11 = getelementptr inbounds nuw %"struct.std::pair.13", ptr %7, i32 0, i32 1
  %12 = load ptr, ptr %6, align 8, !tbaa !22
  %13 = getelementptr inbounds [1 x i8], ptr %12, i64 0, i64 0
  store ptr %13, ptr %11, align 8, !tbaa !234
  ret void
}

; Function Attrs: mustprogress nounwind uwtable
define linkonce_odr void @_ZNSt4pairIKiPKcEC2IRiRA30_S1_TnNSt9enable_ifIXaaclsr5_PCCPE22_MoveConstructiblePairIT_T0_EEclsr5_PCCPE30_ImplicitlyMoveConvertiblePairIS9_SA_EEEbE4typeELb1EEEOS9_OSA_(ptr noundef nonnull align 8 dereferenceable(16) %0, ptr noundef nonnull align 4 dereferenceable(4) %1, ptr noundef nonnull align 1 dereferenceable(30) %2) unnamed_addr #0 comdat align 2 {
  %4 = alloca ptr, align 8
  %5 = alloca ptr, align 8
  %6 = alloca ptr, align 8
  store ptr %0, ptr %4, align 8, !tbaa !230
  store ptr %1, ptr %5, align 8, !tbaa !166
  store ptr %2, ptr %6, align 8, !tbaa !22
  %7 = load ptr, ptr %4, align 8
  %8 = getelementptr inbounds nuw %"struct.std::pair.13", ptr %7, i32 0, i32 0
  %9 = load ptr, ptr %5, align 8, !tbaa !166
  %10 = load i32, ptr %9, align 4, !tbaa !32
  store i32 %10, ptr %8, align 8, !tbaa !232
  %11 = getelementptr inbounds nuw %"struct.std::pair.13", ptr %7, i32 0, i32 1
  %12 = load ptr, ptr %6, align 8, !tbaa !22
  %13 = getelementptr inbounds [30 x i8], ptr %12, i64 0, i64 0
  store ptr %13, ptr %11, align 8, !tbaa !234
  ret void
}

; Function Attrs: mustprogress nounwind uwtable
define linkonce_odr void @_ZNSt4pairIKiPKcEC2IiRA14_S1_TnNSt9enable_ifIXaaclsr5_PCCPE22_MoveConstructiblePairIT_T0_EEclsr5_PCCPE30_ImplicitlyMoveConvertiblePairIS8_S9_EEEbE4typeELb1EEEOS8_OS9_(ptr noundef nonnull align 8 dereferenceable(16) %0, ptr noundef nonnull align 4 dereferenceable(4) %1, ptr noundef nonnull align 1 dereferenceable(14) %2) unnamed_addr #0 comdat align 2 {
  %4 = alloca ptr, align 8
  %5 = alloca ptr, align 8
  %6 = alloca ptr, align 8
  store ptr %0, ptr %4, align 8, !tbaa !230
  store ptr %1, ptr %5, align 8, !tbaa !166
  store ptr %2, ptr %6, align 8, !tbaa !22
  %7 = load ptr, ptr %4, align 8
  %8 = getelementptr inbounds nuw %"struct.std::pair.13", ptr %7, i32 0, i32 0
  %9 = load ptr, ptr %5, align 8, !tbaa !166
  %10 = load i32, ptr %9, align 4, !tbaa !32
  store i32 %10, ptr %8, align 8, !tbaa !232
  %11 = getelementptr inbounds nuw %"struct.std::pair.13", ptr %7, i32 0, i32 1
  %12 = load ptr, ptr %6, align 8, !tbaa !22
  %13 = getelementptr inbounds [14 x i8], ptr %12, i64 0, i64 0
  store ptr %13, ptr %11, align 8, !tbaa !234
  ret void
}

; Function Attrs: mustprogress nounwind uwtable
define { i32, ptr } @_ZNK5folly10symbolizer7ElfFile12posixFadviseElli(ptr noundef nonnull align 8 dereferenceable(576) %0, i64 noundef %1, i64 noundef %2, i32 noundef %3) #0 align 2 personality ptr @__gxx_personality_v0 {
  %5 = alloca %"struct.std::pair.13", align 8
  %6 = alloca ptr, align 8
  %7 = alloca i64, align 8
  %8 = alloca i64, align 8
  %9 = alloca i32, align 4
  %10 = alloca i32, align 4
  %11 = alloca i32, align 4
  %12 = alloca i32, align 4
  store ptr %0, ptr %6, align 8, !tbaa !7
  store i64 %1, ptr %7, align 8, !tbaa !37
  store i64 %2, ptr %8, align 8, !tbaa !37
  store i32 %3, ptr %9, align 4, !tbaa !32
  %13 = load ptr, ptr %6, align 8
  %14 = getelementptr inbounds nuw %"class.folly::symbolizer::ElfFile", ptr %13, i32 0, i32 1
  %15 = load i32, ptr %14, align 8, !tbaa !13
  %16 = icmp eq i32 %15, -1
  br i1 %16, label %17, label %19

17:                                               ; preds = %4
  call void @llvm.lifetime.start.p0(i64 4, ptr %10) #24
  store i32 1, ptr %10, align 4, !tbaa !32
  invoke void @_ZNSt4pairIKiPKcEC2IiRA14_S1_TnNSt9enable_ifIXaaclsr5_PCCPE22_MoveConstructiblePairIT_T0_EEclsr5_PCCPE30_ImplicitlyMoveConvertiblePairIS8_S9_EEEbE4typeELb1EEEOS8_OS9_(ptr noundef nonnull align 8 dereferenceable(16) %5, ptr noundef nonnull align 4 dereferenceable(4) %10, ptr noundef nonnull align 1 dereferenceable(14) @.str.49)
          to label %18 unwind label %35

18:                                               ; preds = %17
  call void @llvm.lifetime.end.p0(i64 4, ptr %10) #24
  br label %33

19:                                               ; preds = %4
  call void @llvm.lifetime.start.p0(i64 4, ptr %11) #24
  %20 = getelementptr inbounds nuw %"class.folly::symbolizer::ElfFile", ptr %13, i32 0, i32 1
  %21 = load i32, ptr %20, align 8, !tbaa !13
  %22 = load i64, ptr %7, align 8, !tbaa !37
  %23 = load i64, ptr %8, align 8, !tbaa !37
  %24 = load i32, ptr %9, align 4, !tbaa !32
  %25 = call i32 @posix_fadvise(i32 noundef %21, i64 noundef %22, i64 noundef %23, i32 noundef %24) #24
  store i32 %25, ptr %11, align 4, !tbaa !32
  %26 = load i32, ptr %11, align 4, !tbaa !32
  %27 = icmp ne i32 %26, 0
  br i1 %27, label %28, label %30

28:                                               ; preds = %19
  invoke void @_ZNSt4pairIKiPKcEC2IRiRA30_S1_TnNSt9enable_ifIXaaclsr5_PCCPE22_MoveConstructiblePairIT_T0_EEclsr5_PCCPE30_ImplicitlyMoveConvertiblePairIS9_SA_EEEbE4typeELb1EEEOS9_OSA_(ptr noundef nonnull align 8 dereferenceable(16) %5, ptr noundef nonnull align 4 dereferenceable(4) %11, ptr noundef nonnull align 1 dereferenceable(30) @.str.50)
          to label %29 unwind label %35

29:                                               ; preds = %28
  store i32 1, ptr %12, align 4
  br label %32

30:                                               ; preds = %19
  invoke void @_ZNSt4pairIKiPKcEC2IRiRA1_S1_TnNSt9enable_ifIXaaclsr5_PCCPE22_MoveConstructiblePairIT_T0_EEclsr5_PCCPE30_ImplicitlyMoveConvertiblePairIS9_SA_EEEbE4typeELb1EEEOS9_OSA_(ptr noundef nonnull align 8 dereferenceable(16) %5, ptr noundef nonnull align 4 dereferenceable(4) %11, ptr noundef nonnull align 1 dereferenceable(1) @.str.51)
          to label %31 unwind label %35

31:                                               ; preds = %30
  store i32 1, ptr %12, align 4
  br label %32

32:                                               ; preds = %31, %29
  call void @llvm.lifetime.end.p0(i64 4, ptr %11) #24
  br label %33

33:                                               ; preds = %32, %18
  %34 = load { i32, ptr }, ptr %5, align 8
  ret { i32, ptr } %34

35:                                               ; preds = %30, %28, %17
  %36 = landingpad { ptr, i32 }
          catch ptr null
  %37 = extractvalue { ptr, i32 } %36, 0
  call void @__clang_call_terminate(ptr %37) #26
  unreachable
}

; Function Attrs: mustprogress nounwind uwtable
define { i32, ptr } @_ZNK5folly10symbolizer7ElfFile12posixFadviseEi(ptr noundef nonnull align 8 dereferenceable(576) %0, i32 noundef %1) #0 align 2 {
  %3 = alloca %"struct.std::pair.13", align 8
  %4 = alloca ptr, align 8
  %5 = alloca i32, align 4
  store ptr %0, ptr %4, align 8, !tbaa !7
  store i32 %1, ptr %5, align 4, !tbaa !32
  %6 = load ptr, ptr %4, align 8
  %7 = load i32, ptr %5, align 4, !tbaa !32
  %8 = call { i32, ptr } @_ZNK5folly10symbolizer7ElfFile12posixFadviseElli(ptr noundef nonnull align 8 dereferenceable(576) %6, i64 noundef 0, i64 noundef 0, i32 noundef %7) #24
  %9 = getelementptr inbounds nuw { i32, ptr }, ptr %3, i32 0, i32 0
  %10 = extractvalue { i32, ptr } %8, 0
  store i32 %10, ptr %9, align 8
  %11 = getelementptr inbounds nuw { i32, ptr }, ptr %3, i32 0, i32 1
  %12 = extractvalue { i32, ptr } %8, 1
  store ptr %12, ptr %11, align 8
  %13 = load { i32, ptr }, ptr %3, align 8
  ret { i32, ptr } %13
}