; Function Attrs: mustprogress nounwind uwtable
define { i32, ptr } @_ZNK5folly10symbolizer7ElfFile12posixFadviseEi(ptr noundef nonnull readonly align 8 captures(none) dereferenceable(576) %0, i32 noundef %1) local_unnamed_addr #4 align 2 personality ptr @__gxx_personality_v0 {
  %3 = getelementptr inbounds nuw i8, ptr %0, i64 512
  %4 = load i32, ptr %3, align 8, !tbaa !10
  %5 = icmp eq i32 %4, -1
  br i1 %5, label %_ZNK5folly10symbolizer7ElfFile12posixFadviseElli.exit, label %6

6:                                                ; preds = %2
  %7 = tail call i32 @posix_fadvise(i32 noundef %4, i64 noundef 0, i64 noundef 0, i32 noundef %1) #27
  %.not.i = icmp eq i32 %7, 0
  %spec.select5.i = select i1 %.not.i, ptr @.str.51, ptr @.str.50
  br label %_ZNK5folly10symbolizer7ElfFile12posixFadviseElli.exit

_ZNK5folly10symbolizer7ElfFile12posixFadviseElli.exit: ; preds = %2, %6
  %.sroa.0.0.i = phi i32 [ 1, %2 ], [ %7, %6 ]
  %.sroa.4.0.i = phi ptr [ @.str.49, %2 ], [ %spec.select5.i, %6 ]
  %.fca.0.insert.i = insertvalue { i32, ptr } poison, i32 %.sroa.0.0.i, 0
  %.fca.1.insert.i = insertvalue { i32, ptr } %.fca.0.insert.i, ptr %.sroa.4.0.i, 1
  ret { i32, ptr } %.fca.1.insert.i
}